target datalayout = "e-m:e-p270:32:32-p271:32:32-p272:64:64-i64:64-i128:128-f80:128-n8:16:32:64-S128"
target triple = "x86_64-pc-linux-gnu"

%struct.pg_prng_state = type { i64, i64 }
%struct.ReservoirStateData = type { double, %struct.pg_prng_state }

; Function Attrs: nounwind uwtable
define dso_local double @sampler_random_fract(ptr noundef %0) #0 {
  %2 = alloca ptr, align 8
  %3 = alloca double, align 8
  store ptr %0, ptr %2, align 8
  call void @llvm.lifetime.start.p0(i64 8, ptr %3) #6
  br label %4

4:                                                ; preds = %7, %1
  %5 = load ptr, ptr %2, align 8
  %6 = call double @pg_prng_double(ptr noundef %5)
  store double %6, ptr %3, align 8
  br label %7

7:                                                ; preds = %4
  %8 = load double, ptr %3, align 8
  %9 = fcmp oeq double %8, 0.000000e+00
  %10 = zext i1 %9 to i32
  %11 = icmp ne i32 %10, 0
  %12 = zext i1 %11 to i32
  %13 = sext i32 %12 to i64
  %14 = call i64 @llvm.expect.i64(i64 %13, i64 0)
  %15 = icmp ne i64 %14, 0
  br i1 %15, label %4, label %16, !llvm.loop !6

16:                                               ; preds = %7
  %17 = load double, ptr %3, align 8
  call void @llvm.lifetime.end.p0(i64 8, ptr %3) #6
  ret double %17
}

; Function Attrs: nounwind uwtable
define dso_local double @reservoir_get_next_S(ptr noundef %0, double noundef %1, i32 noundef %2) #0 {
  %4 = alloca ptr, align 8
  %5 = alloca double, align 8
  %6 = alloca i32, align 4
  %7 = alloca double, align 8
  %8 = alloca double, align 8
  %9 = alloca double, align 8
  %10 = alloca double, align 8
  %11 = alloca double, align 8
  %12 = alloca double, align 8
  %13 = alloca double, align 8
  %14 = alloca double, align 8
  %15 = alloca double, align 8
  %16 = alloca double, align 8
  %17 = alloca double, align 8
  %18 = alloca double, align 8
  %19 = alloca double, align 8
  %20 = alloca double, align 8
  %21 = alloca i32, align 4
  store ptr %0, ptr %4, align 8
  store double %1, ptr %5, align 8
  store i32 %2, ptr %6, align 4
  call void @llvm.lifetime.start.p0(i64 8, ptr %7) #6
  %22 = load double, ptr %5, align 8
  %23 = load i32, ptr %6, align 4
  %24 = sitofp i32 %23 to double
  %25 = fmul double 2.200000e+01, %24
  %26 = fcmp ole double %22, %25
  br i1 %26, label %27, label %57

27:                                               ; preds = %3
  call void @llvm.lifetime.start.p0(i64 8, ptr %8) #6
  call void @llvm.lifetime.start.p0(i64 8, ptr %9) #6
  %28 = load ptr, ptr %4, align 8
  %29 = getelementptr inbounds nuw %struct.ReservoirStateData, ptr %28, i32 0, i32 1
  %30 = call double @sampler_random_fract(ptr noundef %29)
  store double %30, ptr %8, align 8
  store double 0.000000e+00, ptr %7, align 8
  %31 = load double, ptr %5, align 8
  %32 = fadd double %31, 1.000000e+00
  store double %32, ptr %5, align 8
  %33 = load double, ptr %5, align 8
  %34 = load i32, ptr %6, align 4
  %35 = sitofp i32 %34 to double
  %36 = fsub double %33, %35
  %37 = load double, ptr %5, align 8
  %38 = fdiv double %36, %37
  store double %38, ptr %9, align 8
  br label %39

39:                                               ; preds = %43, %27
  %40 = load double, ptr %9, align 8
  %41 = load double, ptr %8, align 8
  %42 = fcmp ogt double %40, %41
  br i1 %42, label %43, label %56

43:                                               ; preds = %39
  %44 = load double, ptr %7, align 8
  %45 = fadd double %44, 1.000000e+00
  store double %45, ptr %7, align 8
  %46 = load double, ptr %5, align 8
  %47 = fadd double %46, 1.000000e+00
  store double %47, ptr %5, align 8
  %48 = load double, ptr %5, align 8
  %49 = load i32, ptr %6, align 4
  %50 = sitofp i32 %49 to double
  %51 = fsub double %48, %50
  %52 = load double, ptr %5, align 8
  %53 = fdiv double %51, %52
  %54 = load double, ptr %9, align 8
  %55 = fmul double %54, %53
  store double %55, ptr %9, align 8
  br label %39, !llvm.loop !7

56:                                               ; preds = %39
  call void @llvm.lifetime.end.p0(i64 8, ptr %9) #6
  call void @llvm.lifetime.end.p0(i64 8, ptr %8) #6
  br label %200

57:                                               ; preds = %3
  call void @llvm.lifetime.start.p0(i64 8, ptr %10) #6
  %58 = load ptr, ptr %4, align 8
  %59 = getelementptr inbounds nuw %struct.ReservoirStateData, ptr %58, i32 0, i32 0
  %60 = load double, ptr %59, align 8
  store double %60, ptr %10, align 8
  call void @llvm.lifetime.start.p0(i64 8, ptr %11) #6
  %61 = load double, ptr %5, align 8
  %62 = load i32, ptr %6, align 4
  %63 = sitofp i32 %62 to double
  %64 = fsub double %61, %63
  %65 = fadd double %64, 1.000000e+00
  store double %65, ptr %11, align 8
  br label %66

66:                                               ; preds = %195, %57
  call void @llvm.lifetime.start.p0(i64 8, ptr %12) #6
  call void @llvm.lifetime.start.p0(i64 8, ptr %13) #6
  call void @llvm.lifetime.start.p0(i64 8, ptr %14) #6
  call void @llvm.lifetime.start.p0(i64 8, ptr %15) #6
  call void @llvm.lifetime.start.p0(i64 8, ptr %16) #6
  call void @llvm.lifetime.start.p0(i64 8, ptr %17) #6
  call void @llvm.lifetime.start.p0(i64 8, ptr %18) #6
  call void @llvm.lifetime.start.p0(i64 8, ptr %19) #6
  call void @llvm.lifetime.start.p0(i64 8, ptr %20) #6
  %67 = load ptr, ptr %4, align 8
  %68 = getelementptr inbounds nuw %struct.ReservoirStateData, ptr %67, i32 0, i32 1
  %69 = call double @sampler_random_fract(ptr noundef %68)
  store double %69, ptr %15, align 8
  %70 = load double, ptr %5, align 8
  %71 = load double, ptr %10, align 8
  %72 = fsub double %71, 1.000000e+00
  %73 = fmul double %70, %72
  store double %73, ptr %16, align 8
  %74 = load double, ptr %16, align 8
  %75 = call double @llvm.floor.f64(double %74)
  store double %75, ptr %7, align 8
  %76 = load double, ptr %5, align 8
  %77 = fadd double %76, 1.000000e+00
  %78 = load double, ptr %11, align 8
  %79 = fdiv double %77, %78
  store double %79, ptr %20, align 8
  %80 = load double, ptr %15, align 8
  %81 = load double, ptr %20, align 8
  %82 = fmul double %80, %81
  %83 = load double, ptr %20, align 8
  %84 = fmul double %82, %83
  %85 = load double, ptr %11, align 8
  %86 = load double, ptr %7, align 8
  %87 = fadd double %85, %86
  %88 = fmul double %84, %87
  %89 = load double, ptr %5, align 8
  %90 = load double, ptr %16, align 8
  %91 = fadd double %89, %90
  %92 = fdiv double %88, %91
  %93 = call double @log(double noundef %92) #6
  %94 = load i32, ptr %6, align 4
  %95 = sitofp i32 %94 to double
  %96 = fdiv double %93, %95
  %97 = call double @exp(double noundef %96) #6
  store double %97, ptr %17, align 8
  %98 = load double, ptr %5, align 8
  %99 = load double, ptr %16, align 8
  %100 = fadd double %98, %99
  %101 = load double, ptr %11, align 8
  %102 = load double, ptr %7, align 8
  %103 = fadd double %101, %102
  %104 = fdiv double %100, %103
  %105 = load double, ptr %11, align 8
  %106 = fmul double %104, %105
  %107 = load double, ptr %5, align 8
  %108 = fdiv double %106, %107
  store double %108, ptr %18, align 8
  %109 = load double, ptr %17, align 8
  %110 = load double, ptr %18, align 8
  %111 = fcmp ole double %109, %110
  br i1 %111, label %112, label %116

112:                                              ; preds = %66
  %113 = load double, ptr %18, align 8
  %114 = load double, ptr %17, align 8
  %115 = fdiv double %113, %114
  store double %115, ptr %10, align 8
  store i32 4, ptr %21, align 4
  br label %193

116:                                              ; preds = %66
  %117 = load double, ptr %15, align 8
  %118 = load double, ptr %5, align 8
  %119 = fadd double %118, 1.000000e+00
  %120 = fmul double %117, %119
  %121 = load double, ptr %11, align 8
  %122 = fdiv double %120, %121
  %123 = load double, ptr %5, align 8
  %124 = load double, ptr %7, align 8
  %125 = fadd double %123, %124
  %126 = fadd double %125, 1.000000e+00
  %127 = fmul double %122, %126
  %128 = load double, ptr %5, align 8
  %129 = load double, ptr %16, align 8
  %130 = fadd double %128, %129
  %131 = fdiv double %127, %130
  store double %131, ptr %19, align 8
  %132 = load i32, ptr %6, align 4
  %133 = sitofp i32 %132 to double
  %134 = load double, ptr %7, align 8
  %135 = fcmp olt double %133, %134
  br i1 %135, label %136, label %141

136:                                              ; preds = %116
  %137 = load double, ptr %5, align 8
  store double %137, ptr %14, align 8
  %138 = load double, ptr %11, align 8
  %139 = load double, ptr %7, align 8
  %140 = fadd double %138, %139
  store double %140, ptr %13, align 8
  br label %150

141:                                              ; preds = %116
  %142 = load double, ptr %5, align 8
  %143 = load i32, ptr %6, align 4
  %144 = sitofp i32 %143 to double
  %145 = fsub double %142, %144
  %146 = load double, ptr %7, align 8
  %147 = fadd double %145, %146
  store double %147, ptr %14, align 8
  %148 = load double, ptr %5, align 8
  %149 = fadd double %148, 1.000000e+00
  store double %149, ptr %13, align 8
  br label %150

150:                                              ; preds = %141, %136
  %151 = load double, ptr %5, align 8
  %152 = load double, ptr %7, align 8
  %153 = fadd double %151, %152
  store double %153, ptr %12, align 8
  br label %154

154:                                              ; preds = %166, %150
  %155 = load double, ptr %12, align 8
  %156 = load double, ptr %13, align 8
  %157 = fcmp oge double %155, %156
  br i1 %157, label %158, label %169

158:                                              ; preds = %154
  %159 = load double, ptr %12, align 8
  %160 = load double, ptr %14, align 8
  %161 = fdiv double %159, %160
  %162 = load double, ptr %19, align 8
  %163 = fmul double %162, %161
  store double %163, ptr %19, align 8
  %164 = load double, ptr %14, align 8
  %165 = fsub double %164, 1.000000e+00
  store double %165, ptr %14, align 8
  br label %166

166:                                              ; preds = %158
  %167 = load double, ptr %12, align 8
  %168 = fsub double %167, 1.000000e+00
  store double %168, ptr %12, align 8
  br label %154, !llvm.loop !8

169:                                              ; preds = %154
  %170 = load ptr, ptr %4, align 8
  %171 = getelementptr inbounds nuw %struct.ReservoirStateData, ptr %170, i32 0, i32 1
  %172 = call double @sampler_random_fract(ptr noundef %171)
  %173 = call double @log(double noundef %172) #6
  %174 = fneg double %173
  %175 = load i32, ptr %6, align 4
  %176 = sitofp i32 %175 to double
  %177 = fdiv double %174, %176
  %178 = call double @exp(double noundef %177) #6
  store double %178, ptr %10, align 8
  %179 = load double, ptr %19, align 8
  %180 = call double @log(double noundef %179) #6
  %181 = load i32, ptr %6, align 4
  %182 = sitofp i32 %181 to double
  %183 = fdiv double %180, %182
  %184 = call double @exp(double noundef %183) #6
  %185 = load double, ptr %5, align 8
  %186 = load double, ptr %16, align 8
  %187 = fadd double %185, %186
  %188 = load double, ptr %5, align 8
  %189 = fdiv double %187, %188
  %190 = fcmp ole double %184, %189
  br i1 %190, label %191, label %192

191:                                              ; preds = %169
  store i32 4, ptr %21, align 4
  br label %193

192:                                              ; preds = %169
  store i32 0, ptr %21, align 4
  br label %193

193:                                              ; preds = %192, %191, %112
  call void @llvm.lifetime.end.p0(i64 8, ptr %20) #6
  call void @llvm.lifetime.end.p0(i64 8, ptr %19) #6
  call void @llvm.lifetime.end.p0(i64 8, ptr %18) #6
  call void @llvm.lifetime.end.p0(i64 8, ptr %17) #6
  call void @llvm.lifetime.end.p0(i64 8, ptr %16) #6
  call void @llvm.lifetime.end.p0(i64 8, ptr %15) #6
  call void @llvm.lifetime.end.p0(i64 8, ptr %14) #6
  call void @llvm.lifetime.end.p0(i64 8, ptr %13) #6
  call void @llvm.lifetime.end.p0(i64 8, ptr %12) #6
  %194 = load i32, ptr %21, align 4
  switch i32 %194, label %202 [
    i32 0, label %195
    i32 4, label %196
  ]

195:                                              ; preds = %193
  br label %66

196:                                              ; preds = %193
  %197 = load double, ptr %10, align 8
  %198 = load ptr, ptr %4, align 8
  %199 = getelementptr inbounds nuw %struct.ReservoirStateData, ptr %198, i32 0, i32 0
  store double %197, ptr %199, align 8
  call void @llvm.lifetime.end.p0(i64 8, ptr %11) #6
  call void @llvm.lifetime.end.p0(i64 8, ptr %10) #6
  br label %200

200:                                              ; preds = %196, %56
  %201 = load double, ptr %7, align 8
  store i32 1, ptr %21, align 4
  call void @llvm.lifetime.end.p0(i64 8, ptr %7) #6
  ret double %201

202:                                              ; preds = %193
  unreachable
}