; Function Attrs: nounwind uwtable
define dso_local double @reservoir_get_next_S(ptr noundef %0, double noundef %1, i32 noundef %2) local_unnamed_addr #0 {
  %4 = sitofp i32 %2 to double
  %5 = fmul double %4, 2.200000e+01
  %6 = fcmp ugt double %1, %5
  br i1 %6, label %22, label %7

7:                                                ; preds = %3
  %8 = getelementptr inbounds nuw i8, ptr %0, i64 8
  br label %9

9:                                                ; preds = %9, %7
  %10 = tail call double @pg_prng_double(ptr noundef nonnull %8) #6
  %11 = fcmp oeq double %10, 0.000000e+00
  br i1 %11, label %9, label %sampler_random_fract.exit, !prof !4, !llvm.loop !5

sampler_random_fract.exit:                        ; preds = %9
  %12 = fadd double %1, 1.000000e+00
  %13 = fsub double %12, %4
  %14 = fdiv double %13, %12
  %15 = fcmp ogt double %14, %10
  br i1 %15, label %.lr.ph, label %.loopexit98

.lr.ph:                                           ; preds = %sampler_random_fract.exit, %.lr.ph
  %.077110 = phi double [ %17, %.lr.ph ], [ %12, %sampler_random_fract.exit ]
  %.079109 = phi double [ %16, %.lr.ph ], [ 0.000000e+00, %sampler_random_fract.exit ]
  %.080108 = phi double [ %20, %.lr.ph ], [ %14, %sampler_random_fract.exit ]
  %16 = fadd double %.079109, 1.000000e+00
  %17 = fadd double %.077110, 1.000000e+00
  %18 = fsub double %17, %4
  %19 = fdiv double %18, %17
  %20 = fmul double %.080108, %19
  %21 = fcmp ogt double %20, %10
  br i1 %21, label %.lr.ph, label %.loopexit98, !llvm.loop !8

22:                                               ; preds = %3
  %23 = load double, ptr %0, align 8
  %24 = fsub double %1, %4
  %25 = fadd double %24, 1.000000e+00
  %26 = getelementptr inbounds nuw i8, ptr %0, i64 8
  %27 = fadd double %1, 1.000000e+00
  %28 = fdiv double %27, %25
  br label %29

29:                                               ; preds = %sampler_random_fract.exit93, %22
  %.081 = phi double [ %23, %22 ], [ %72, %sampler_random_fract.exit93 ]
  br label %30

30:                                               ; preds = %30, %29
  %31 = tail call double @pg_prng_double(ptr noundef nonnull %26) #6
  %32 = fcmp oeq double %31, 0.000000e+00
  br i1 %32, label %30, label %sampler_random_fract.exit92, !prof !4, !llvm.loop !5

sampler_random_fract.exit92:                      ; preds = %30
  %33 = fadd double %.081, -1.000000e+00
  %34 = fmul double %1, %33
  %35 = tail call double @llvm.floor.f64(double %34)
  %36 = fmul double %28, %31
  %37 = fmul double %28, %36
  %38 = fadd double %25, %35
  %39 = fmul double %38, %37
  %40 = fadd double %1, %34
  %41 = fdiv double %39, %40
  %42 = tail call double @log(double noundef %41) #6
  %43 = fdiv double %42, %4
  %44 = tail call double @exp(double noundef %43) #6
  %45 = fdiv double %40, %38
  %46 = fmul double %25, %45
  %47 = fdiv double %46, %1
  %48 = fcmp ugt double %44, %47
  br i1 %48, label %51, label %49

49:                                               ; preds = %sampler_random_fract.exit92
  %50 = fdiv double %47, %44
  br label %.loopexit

51:                                               ; preds = %sampler_random_fract.exit92
  %52 = fmul double %27, %31
  %53 = fdiv double %52, %25
  %54 = fadd double %1, %35
  %55 = fadd double %54, 1.000000e+00
  %56 = fmul double %55, %53
  %57 = fdiv double %56, %40
  %58 = fcmp ogt double %35, %4
  %.086 = select i1 %58, double %38, double %27
  %59 = fcmp ult double %54, %.086
  br i1 %59, label %.preheader, label %.lr.ph114.preheader

.lr.ph114.preheader:                              ; preds = %51
  %60 = fadd double %24, %35
  %.084 = select i1 %58, double %1, double %60
  br label %.lr.ph114

.preheader:                                       ; preds = %.lr.ph114, %51
  %.078.lcssa = phi double [ %57, %51 ], [ %62, %.lr.ph114 ]
  br label %66

.lr.ph114:                                        ; preds = %.lr.ph114.preheader, %.lr.ph114
  %.078113 = phi double [ %62, %.lr.ph114 ], [ %57, %.lr.ph114.preheader ]
  %.083112 = phi double [ %64, %.lr.ph114 ], [ %54, %.lr.ph114.preheader ]
  %.185111 = phi double [ %63, %.lr.ph114 ], [ %.084, %.lr.ph114.preheader ]
  %61 = fdiv double %.083112, %.185111
  %62 = fmul double %.078113, %61
  %63 = fadd double %.185111, -1.000000e+00
  %64 = fadd double %.083112, -1.000000e+00
  %65 = fcmp ult double %64, %.086
  br i1 %65, label %.preheader, label %.lr.ph114, !llvm.loop !9

66:                                               ; preds = %.preheader, %66
  %67 = tail call double @pg_prng_double(ptr noundef nonnull %26) #6
  %68 = fcmp oeq double %67, 0.000000e+00
  br i1 %68, label %66, label %sampler_random_fract.exit93, !prof !4, !llvm.loop !5

sampler_random_fract.exit93:                      ; preds = %66
  %69 = tail call double @log(double noundef %67) #6
  %70 = fneg double %69
  %71 = fdiv double %70, %4
  %72 = tail call double @exp(double noundef %71) #6
  %73 = tail call double @log(double noundef %.078.lcssa) #6
  %74 = fdiv double %73, %4
  %75 = tail call double @exp(double noundef %74) #6
  %76 = fdiv double %40, %1
  %77 = fcmp ugt double %75, %76
  br i1 %77, label %29, label %.loopexit

.loopexit:                                        ; preds = %sampler_random_fract.exit93, %49
  %.182.ph = phi double [ %50, %49 ], [ %72, %sampler_random_fract.exit93 ]
  store double %.182.ph, ptr %0, align 8
  br label %.loopexit98

.loopexit98:                                      ; preds = %.lr.ph, %sampler_random_fract.exit, %.loopexit
  %.1 = phi double [ %35, %.loopexit ], [ 0.000000e+00, %sampler_random_fract.exit ], [ %16, %.lr.ph ]
  ret double %.1
}